; Function Attrs: nounwind uwtable
define dso_local void @set_joinrel_size_estimates(ptr noundef %0, ptr noundef captures(none) %1, ptr noundef readonly captures(none) %2, ptr noundef readonly captures(none) %3, ptr noundef %4, ptr noundef %5) local_unnamed_addr #2 {
  %7 = getelementptr inbounds nuw i8, ptr %2, i64 16
  %8 = load double, ptr %7, align 8
  %9 = getelementptr inbounds nuw i8, ptr %3, i64 16
  %10 = load double, ptr %9, align 8
  %11 = getelementptr i8, ptr %2, i64 8
  %.val = load ptr, ptr %11, align 8
  %12 = getelementptr i8, ptr %3, i64 8
  %.val9 = load ptr, ptr %12, align 8
  %13 = tail call fastcc double @calc_joinrel_size_estimate(ptr noundef %0, ptr noundef %1, ptr %.val, ptr %.val9, double noundef %8, double noundef %10, ptr noundef %4, ptr noundef %5)
  %14 = getelementptr inbounds nuw i8, ptr %1, i64 16
  store double %13, ptr %14, align 8
  ret void
}